; ModuleID = 'source-C-CXX/35/1242.c'
source_filename = "source-C-CXX/35/1242.c"
target datalayout = "e-m:e-p270:32:32-p271:32:32-p272:64:64-i64:64-f80:128-n8:16:32:64-S128"
target triple = "x86_64-pc-linux-gnu"

@.str = private unnamed_addr constant [6 x i8] c"%s %s\00", align 1
@.str.1 = private unnamed_addr constant [3 x i8] c"NO\00", align 1
@.str.2 = private unnamed_addr constant [4 x i8] c"YES\00", align 1

; Function Attrs: nofree nounwind sspstrong uwtable
define dso_local i32 @main() local_unnamed_addr #0 {
  %1 = alloca [100 x i8], align 16
  %2 = alloca [100 x i8], align 16
  %3 = getelementptr inbounds [100 x i8], [100 x i8]* %1, i64 0, i64 0
  call void @llvm.lifetime.start.p0i8(i64 100, i8* nonnull %3) #5
  %4 = getelementptr inbounds [100 x i8], [100 x i8]* %2, i64 0, i64 0
  call void @llvm.lifetime.start.p0i8(i64 100, i8* nonnull %4) #5
  %5 = call i32 (i8*, ...) @__isoc99_scanf(i8* getelementptr inbounds ([6 x i8], [6 x i8]* @.str, i64 0, i64 0), i8* nonnull %3, i8* nonnull %4)
  %6 = call i64 @strlen(i8* noundef nonnull %3) #6
  %7 = trunc i64 %6 to i32
  %8 = call i64 @strlen(i8* noundef nonnull %4) #6
  %9 = trunc i64 %8 to i32
  %10 = icmp eq i32 %7, %9
  br i1 %10, label %11, label %69

11:                                               ; preds = %0
  %12 = icmp sgt i32 %7, 0
  br i1 %12, label %13, label %69

13:                                               ; preds = %11
  %14 = and i64 %6, 4294967295
  %15 = icmp ult i64 %14, 8
  br i1 %15, label %49, label %16

16:                                               ; preds = %13
  %17 = and i64 %6, 7
  %18 = sub nsw i64 %14, %17
  br label %19

19:                                               ; preds = %19, %16
  %20 = phi i64 [ 0, %16 ], [ %43, %19 ]
  %21 = phi <4 x i32> [ zeroinitializer, %16 ], [ %41, %19 ]
  %22 = phi <4 x i32> [ zeroinitializer, %16 ], [ %42, %19 ]
  %23 = getelementptr inbounds [100 x i8], [100 x i8]* %1, i64 0, i64 %20
  %24 = bitcast i8* %23 to <4 x i8>*
  %25 = load <4 x i8>, <4 x i8>* %24, align 8, !tbaa !5
  %26 = getelementptr inbounds i8, i8* %23, i64 4
  %27 = bitcast i8* %26 to <4 x i8>*
  %28 = load <4 x i8>, <4 x i8>* %27, align 4, !tbaa !5
  %29 = sext <4 x i8> %25 to <4 x i32>
  %30 = sext <4 x i8> %28 to <4 x i32>
  %31 = add <4 x i32> %21, %29
  %32 = add <4 x i32> %22, %30
  %33 = getelementptr inbounds [100 x i8], [100 x i8]* %2, i64 0, i64 %20
  %34 = bitcast i8* %33 to <4 x i8>*
  %35 = load <4 x i8>, <4 x i8>* %34, align 8, !tbaa !5
  %36 = getelementptr inbounds i8, i8* %33, i64 4
  %37 = bitcast i8* %36 to <4 x i8>*
  %38 = load <4 x i8>, <4 x i8>* %37, align 4, !tbaa !5
  %39 = sext <4 x i8> %35 to <4 x i32>
  %40 = sext <4 x i8> %38 to <4 x i32>
  %41 = sub <4 x i32> %31, %39
  %42 = sub <4 x i32> %32, %40
  %43 = add nuw i64 %20, 8
  %44 = icmp eq i64 %43, %18
  br i1 %44, label %45, label %19, !llvm.loop !8

45:                                               ; preds = %19
  %46 = add <4 x i32> %42, %41
  %47 = call i32 @llvm.vector.reduce.add.v4i32(<4 x i32> %46)
  %48 = icmp eq i64 %17, 0
  br i1 %48, label %65, label %49

49:                                               ; preds = %13, %45
  %50 = phi i64 [ 0, %13 ], [ %18, %45 ]
  %51 = phi i32 [ 0, %13 ], [ %47, %45 ]
  br label %52

52:                                               ; preds = %49, %52
  %53 = phi i64 [ %63, %52 ], [ %50, %49 ]
  %54 = phi i32 [ %62, %52 ], [ %51, %49 ]
  %55 = getelementptr inbounds [100 x i8], [100 x i8]* %1, i64 0, i64 %53
  %56 = load i8, i8* %55, align 1, !tbaa !5
  %57 = sext i8 %56 to i32
  %58 = add nsw i32 %54, %57
  %59 = getelementptr inbounds [100 x i8], [100 x i8]* %2, i64 0, i64 %53
  %60 = load i8, i8* %59, align 1, !tbaa !5
  %61 = sext i8 %60 to i32
  %62 = sub i32 %58, %61
  %63 = add nuw nsw i64 %53, 1
  %64 = icmp eq i64 %63, %14
  br i1 %64, label %65, label %52, !llvm.loop !11

65:                                               ; preds = %52, %45
  %66 = phi i32 [ %47, %45 ], [ %62, %52 ]
  %67 = icmp eq i32 %66, 0
  %68 = select i1 %67, i8* getelementptr inbounds ([4 x i8], [4 x i8]* @.str.2, i64 0, i64 0), i8* getelementptr inbounds ([3 x i8], [3 x i8]* @.str.1, i64 0, i64 0)
  br label %69

69:                                               ; preds = %65, %11, %0
  %70 = phi i8* [ getelementptr inbounds ([3 x i8], [3 x i8]* @.str.1, i64 0, i64 0), %0 ], [ getelementptr inbounds ([4 x i8], [4 x i8]* @.str.2, i64 0, i64 0), %11 ], [ %68, %65 ]
  %71 = call i32 (i8*, ...) @printf(i8* nonnull dereferenceable(1) %70)
  call void @llvm.lifetime.end.p0i8(i64 100, i8* nonnull %4) #5
  call void @llvm.lifetime.end.p0i8(i64 100, i8* nonnull %3) #5
  ret i32 0
}

; Function Attrs: argmemonly mustprogress nofree nosync nounwind willreturn
declare void @llvm.lifetime.start.p0i8(i64 immarg, i8* nocapture) #1

; Function Attrs: nofree nounwind
declare noundef i32 @__isoc99_scanf(i8* nocapture noundef readonly, ...) local_unnamed_addr #2

; Function Attrs: argmemonly mustprogress nofree nounwind readonly willreturn
declare i64 @strlen(i8* nocapture) local_unnamed_addr #3

; Function Attrs: nofree nounwind
declare noundef i32 @printf(i8* nocapture noundef readonly, ...) local_unnamed_addr #2

; Function Attrs: argmemonly mustprogress nofree nosync nounwind willreturn
declare void @llvm.lifetime.end.p0i8(i64 immarg, i8* nocapture) #1

; Function Attrs: nofree nosync nounwind readnone willreturn
declare i32 @llvm.vector.reduce.add.v4i32(<4 x i32>) #4


!llvm.module.flags = !{!0, !1, !2, !3}
!llvm.ident = !{!4}

!0 = !{i32 1, !"wchar_size", i32 4}
!1 = !{i32 7, !"PIC Level", i32 2}
!2 = !{i32 7, !"PIE Level", i32 2}
!3 = !{i32 7, !"uwtable", i32 1}
!4 = !{!"clang version 13.0.0"}
!5 = !{!6, !6, i64 0}
!6 = !{!"omnipotent char", !7, i64 0}
!7 = !{!"Simple C/C++ TBAA"}
!8 = distinct !{!8, !9, !10}
!9 = !{!"llvm.loop.mustprogress"}
!10 = !{!"llvm.loop.isvectorized", i32 1}
!11 = distinct !{!11, !9, !12, !10}
!12 = !{!"llvm.loop.unroll.runtime.disable"}
